; Function Attrs: nounwind uwtable
define range(i32 -2, 2) i32 @EVP_PKEY_CTX_get_dh_kdf_outlen(ptr noundef %0, ptr noundef writeonly captures(none) %1) local_unnamed_addr #0 {
  %3 = alloca i64, align 8
  %4 = alloca [2 x %struct.ossl_param_st], align 16
  %5 = alloca %struct.ossl_param_st, align 8
  call void @llvm.lifetime.start.p0(i64 8, ptr nonnull %3) #4
  store i64 4294967295, ptr %3, align 8, !tbaa !27
  call void @llvm.lifetime.start.p0(i64 80, ptr nonnull %4) #4
  %6 = icmp eq ptr %0, null
  br i1 %6, label %10, label %7

7:                                                ; preds = %2
  %8 = load i32, ptr %0, align 8, !tbaa !7
  %9 = and i32 %8, 2048
  %.not.i = icmp eq i32 %9, 0
  br i1 %.not.i, label %10, label %11

10:                                               ; preds = %7, %2
  tail call void @ERR_new() #4
  tail call void @ERR_set_debug(ptr noundef nonnull @.str.5, i32 noundef 37, ptr noundef nonnull @__func__.dh_param_derive_check) #4
  tail call void (i32, i32, ptr, ...) @ERR_set_error(i32 noundef 6, i32 noundef 147, ptr noundef null) #4
  br label %dh_param_derive_check.exit

11:                                               ; preds = %7
  %12 = getelementptr inbounds nuw i8, ptr %0, i64 32
  %13 = load ptr, ptr %12, align 8, !tbaa !20
  %14 = icmp eq ptr %13, null
  br i1 %14, label %15, label %select.unfold

15:                                               ; preds = %11
  %16 = getelementptr inbounds nuw i8, ptr %0, i64 120
  %17 = load ptr, ptr %16, align 8, !tbaa !21
  %18 = load i32, ptr %17, align 8, !tbaa !22
  switch i32 %18, label %dh_param_derive_check.exit [
    i32 920, label %select.unfold
    i32 28, label %select.unfold
  ]

select.unfold:                                    ; preds = %15, %15, %11
  %19 = getelementptr inbounds nuw i8, ptr %4, i64 40
  call void @OSSL_PARAM_construct_size_t(ptr dead_on_unwind nonnull writable sret(%struct.ossl_param_st) align 8 %4, ptr noundef nonnull @.str.7, ptr noundef nonnull %3) #4
  call void @llvm.lifetime.start.p0(i64 40, ptr nonnull %5) #4
  call void @OSSL_PARAM_construct_end(ptr dead_on_unwind nonnull writable sret(%struct.ossl_param_st) align 8 %5) #4
  call void @llvm.memcpy.p0.p0.i64(ptr noundef nonnull align 8 dereferenceable(40) %19, ptr noundef nonnull align 8 dereferenceable(40) %5, i64 40, i1 false), !tbaa.struct !24
  call void @llvm.lifetime.end.p0(i64 40, ptr nonnull %5) #4
  %20 = call i32 @evp_pkey_ctx_get_params_strict(ptr noundef nonnull %0, ptr noundef nonnull %4) #4
  %21 = icmp eq i32 %20, -2
  br i1 %21, label %.thread, label %22

.thread:                                          ; preds = %select.unfold
  call void @ERR_new() #4
  call void @ERR_set_debug(ptr noundef nonnull @.str.5, i32 noundef 281, ptr noundef nonnull @__func__.EVP_PKEY_CTX_get_dh_kdf_outlen) #4
  call void (i32, i32, ptr, ...) @ERR_set_error(i32 noundef 6, i32 noundef 147, ptr noundef null) #4
  br label %dh_param_derive_check.exit

22:                                               ; preds = %select.unfold
  %23 = icmp ne i32 %20, 1
  %24 = load i64, ptr %3, align 8
  %25 = icmp ugt i64 %24, 2147483647
  %or.cond = select i1 %23, i1 true, i1 %25
  br i1 %or.cond, label %dh_param_derive_check.exit, label %26

26:                                               ; preds = %22
  %27 = trunc nuw nsw i64 %24 to i32
  store i32 %27, ptr %1, align 4, !tbaa !3
  br label %dh_param_derive_check.exit

dh_param_derive_check.exit:                       ; preds = %15, %.thread, %10, %22, %26
  %.0 = phi i32 [ 1, %26 ], [ -1, %22 ], [ -2, %10 ], [ -1, %15 ], [ -1, %.thread ]
  call void @llvm.lifetime.end.p0(i64 80, ptr nonnull %4) #4
  call void @llvm.lifetime.end.p0(i64 8, ptr nonnull %3) #4
  ret i32 %.0
}